target datalayout = "e-m:e-p270:32:32-p271:32:32-p272:64:64-i64:64-i128:128-f80:128-n8:16:32:64-S128"
target triple = "x86_64-pc-linux-gnu"

%class.QColor = type <{ i32, %"union.QColor::CT", [2 x i8] }>
%"union.QColor::CT" = type { %struct.anon }
%struct.anon = type { i16, i16, i16, i16, i16 }
%class.ColoringRulesModel = type { %class.QAbstractItemModel, ptr, ptr, %class.QColor, %class.QColor, %class.QList.5 }
%class.QAbstractItemModel = type { %class.QObject }
%class.QObject = type { ptr, %class.QScopedPointer }
%class.QScopedPointer = type { ptr }
%class.QList.5 = type { %struct.QArrayDataPointer.8 }
%struct.QArrayDataPointer.8 = type { ptr, ptr, i64 }

; Function Attrs: mustprogress uwtable
define noundef zeroext i1 @_ZN18ColoringRulesModel10removeRowsEiiRK11QModelIndex(ptr noundef nonnull align 8 dereferenceable(88) %0, i32 noundef %1, i32 noundef %2, ptr noundef nonnull align 8 dereferenceable(24) %3) unnamed_addr #0 align 2 {
  %5 = alloca i1, align 1
  %6 = alloca ptr, align 8
  %7 = alloca i32, align 4
  %8 = alloca i32, align 4
  %9 = alloca ptr, align 8
  %10 = alloca i32, align 4
  store ptr %0, ptr %6, align 8
  store i32 %1, ptr %7, align 4
  store i32 %2, ptr %8, align 4
  store ptr %3, ptr %9, align 8
  %11 = load ptr, ptr %6, align 8
  %12 = load i32, ptr %7, align 4
  %13 = icmp slt i32 %12, 0
  br i1 %13, label %14, label %15

14:                                               ; preds = %4
  store i1 false, ptr %5, align 1
  br label %37

15:                                               ; preds = %4
  %16 = load ptr, ptr %9, align 8
  %17 = load i32, ptr %7, align 4
  %18 = load i32, ptr %7, align 4
  %19 = load i32, ptr %8, align 4
  %20 = sub i32 %19, 1
  %21 = add i32 %18, %20
  call void @_ZN18QAbstractItemModel15beginRemoveRowsERK11QModelIndexii(ptr noundef nonnull align 8 dereferenceable(16) %11, ptr noundef nonnull align 8 dereferenceable(24) %16, i32 noundef %17, i32 noundef %21)
  %22 = load i32, ptr %7, align 4
  store i32 %22, ptr %10, align 4
  br label %23

23:                                               ; preds = %33, %15
  %24 = load i32, ptr %10, align 4
  %25 = load i32, ptr %7, align 4
  %26 = load i32, ptr %8, align 4
  %27 = add i32 %25, %26
  %28 = icmp slt i32 %24, %27
  br i1 %28, label %29, label %36

29:                                               ; preds = %23
  %30 = getelementptr inbounds %class.ColoringRulesModel, ptr %11, i32 0, i32 1
  %31 = load ptr, ptr %30, align 8
  %32 = load i32, ptr %7, align 4
  call void @_ZN19ModelHelperTreeItemI16ColoringRuleItemE11removeChildEi(ptr noundef nonnull align 8 dereferenceable(40) %31, i32 noundef %32)
  br label %33

33:                                               ; preds = %29
  %34 = load i32, ptr %10, align 4
  %35 = add i32 %34, 1
  store i32 %35, ptr %10, align 4
  br label %23, !llvm.loop !7

36:                                               ; preds = %23
  call void @_ZN18QAbstractItemModel13endRemoveRowsEv(ptr noundef nonnull align 8 dereferenceable(16) %11)
  store i1 true, ptr %5, align 1
  br label %37

37:                                               ; preds = %36, %14
  %38 = load i1, ptr %5, align 1
  ret i1 %38
}