; Function Attrs: mustprogress uwtable
define noundef zeroext i1 @_ZN18ColoringRulesModel10removeRowsEiiRK11QModelIndex(ptr noundef nonnull align 8 dereferenceable(88) %0, i32 noundef %1, i32 noundef %2, ptr noundef nonnull align 8 dereferenceable(24) %3) unnamed_addr #4 align 2 {
  %5 = icmp sgt i32 %1, -1
  br i1 %5, label %6, label %14

6:                                                ; preds = %4
  %7 = add i32 %2, %1
  %8 = add i32 %7, -1
  tail call void @_ZN18QAbstractItemModel15beginRemoveRowsERK11QModelIndexii(ptr noundef nonnull align 8 dereferenceable(16) %0, ptr noundef nonnull align 8 dereferenceable(24) %3, i32 noundef %1, i32 noundef %8)
  %9 = icmp sgt i32 %7, %1
  br i1 %9, label %.lr.ph, label %._crit_edge

.lr.ph:                                           ; preds = %6
  %10 = getelementptr inbounds i8, ptr %0, i64 16
  br label %11

11:                                               ; preds = %.lr.ph, %11
  %.014 = phi i32 [ %1, %.lr.ph ], [ %13, %11 ]
  %12 = load ptr, ptr %10, align 8
  tail call void @_ZN19ModelHelperTreeItemI16ColoringRuleItemE11removeChildEi(ptr noundef nonnull align 8 dereferenceable(40) %12, i32 noundef %1)
  %13 = add i32 %.014, 1
  %exitcond.not = icmp eq i32 %13, %7
  br i1 %exitcond.not, label %._crit_edge, label %11, !llvm.loop !22

._crit_edge:                                      ; preds = %11, %6
  tail call void @_ZN18QAbstractItemModel13endRemoveRowsEv(ptr noundef nonnull align 8 dereferenceable(16) %0)
  br label %14

14:                                               ; preds = %4, %._crit_edge
  ret i1 %5
}